; Function Attrs: nounwind uwtable
define internal fastcc noundef zeroext i1 @_equalJsonTablePathSpec(ptr noundef nonnull readonly captures(none) %0, ptr noundef nonnull readonly captures(none) %1) unnamed_addr #0 {
  %3 = getelementptr inbounds nuw i8, ptr %0, i64 8
  %4 = load ptr, ptr %3, align 8
  %5 = getelementptr inbounds nuw i8, ptr %1, i64 8
  %6 = load ptr, ptr %5, align 8
  %7 = tail call zeroext i1 @equal(ptr noundef %4, ptr noundef %6)
  br i1 %7, label %8, label %.thread

8:                                                ; preds = %2
  %9 = getelementptr inbounds nuw i8, ptr %0, i64 16
  %10 = load ptr, ptr %9, align 8
  %.not = icmp eq ptr %10, null
  %.phi.trans.insert = getelementptr inbounds nuw i8, ptr %1, i64 16
  %.pre = load ptr, ptr %.phi.trans.insert, align 8
  br i1 %.not, label %15, label %11

11:                                               ; preds = %8
  %.not11 = icmp eq ptr %.pre, null
  br i1 %.not11, label %.thread, label %12

12:                                               ; preds = %11
  %13 = tail call i32 @strcmp(ptr noundef nonnull dereferenceable(1) %10, ptr noundef nonnull dereferenceable(1) %.pre) #11
  %14 = icmp eq i32 %13, 0
  br i1 %14, label %17, label %.thread

15:                                               ; preds = %8
  %16 = icmp eq ptr %10, %.pre
  br i1 %16, label %17, label %.thread

17:                                               ; preds = %12, %15
  br label %.thread

.thread:                                          ; preds = %11, %12, %15, %2, %17
  %.0 = phi i1 [ true, %17 ], [ false, %2 ], [ false, %15 ], [ false, %12 ], [ false, %11 ]
  ret i1 %.0
}